; Function Attrs: mustprogress nofree norecurse nosync nounwind willreturn memory(read, argmem: readwrite, inaccessiblemem: none) uwtable
define internal fastcc noundef zeroext i1 @_ZN4absl18debugging_internalL17ParseOneCharTokenEPNS0_5StateEc(ptr noundef captures(none) %0, i8 noundef signext %1) unnamed_addr #5 personality ptr @__gxx_personality_v0 {
  %3 = getelementptr inbounds nuw i8, ptr %0, i64 20
  %4 = load i32, ptr %3, align 4, !tbaa !17
  %5 = add nsw i32 %4, 1
  store i32 %5, ptr %3, align 4, !tbaa !17
  %6 = getelementptr inbounds nuw i8, ptr %0, i64 24
  %7 = load i32, ptr %6, align 8, !tbaa !15
  %8 = add nsw i32 %7, 1
  store i32 %8, ptr %6, align 8, !tbaa !15
  %9 = icmp sgt i32 %4, 255
  %10 = icmp sgt i32 %7, 131071
  %or.cond = select i1 %9, i1 true, i1 %10
  br i1 %or.cond, label %_ZNK4absl18debugging_internal12_GLOBAL__N_115ComplexityGuard12IsTooComplexEv.exit.thread, label %11

11:                                               ; preds = %2
  %.val6 = load ptr, ptr %0, align 8, !tbaa !7
  %12 = getelementptr i8, ptr %0, i64 28
  %.val7 = load i32, ptr %12, align 4, !tbaa !16
  %13 = sext i32 %.val7 to i64
  %14 = getelementptr inbounds i8, ptr %.val6, i64 %13
  %15 = load i8, ptr %14, align 1, !tbaa !4
  %16 = icmp eq i8 %15, %1
  br i1 %16, label %17, label %_ZNK4absl18debugging_internal12_GLOBAL__N_115ComplexityGuard12IsTooComplexEv.exit.thread

17:                                               ; preds = %11
  %18 = add nsw i32 %.val7, 1
  store i32 %18, ptr %12, align 4, !tbaa !16
  br label %_ZNK4absl18debugging_internal12_GLOBAL__N_115ComplexityGuard12IsTooComplexEv.exit.thread

_ZNK4absl18debugging_internal12_GLOBAL__N_115ComplexityGuard12IsTooComplexEv.exit.thread: ; preds = %2, %11, %17
  %.0 = phi i1 [ true, %17 ], [ false, %11 ], [ false, %2 ]
  store i32 %4, ptr %3, align 4, !tbaa !17
  ret i1 %.0
}